target datalayout = "e-m:e-p270:32:32-p271:32:32-p272:64:64-i64:64-i128:128-f80:128-n8:16:32:64-S128"
target triple = "x86_64-pc-linux-gnu"

%"class.std::__1::locale::facet" = type { %"class.std::__1::__shared_count" }
%"class.std::__1::__shared_count" = type { ptr, i64 }
%"class.std::__1::codecvt.39" = type { %"class.std::__1::locale::facet" }
%"class.std::__1::__codecvt_utf16.70" = type <{ %"class.std::__1::codecvt.39", i64, i32, [4 x i8] }>

; Function Attrs: mustprogress nounwind uwtable
define internal noundef i32 @_ZNSt3__1L15utf16le_to_ucs2EPKhS1_RS1_PtS3_RS3_mNS_12codecvt_modeE(ptr noundef %0, ptr noundef %1, ptr noundef nonnull align 8 dereferenceable(8) %2, ptr noundef %3, ptr noundef %4, ptr noundef nonnull align 8 dereferenceable(8) %5, i64 noundef %6, i32 noundef %7) #0 {
  %9 = alloca i32, align 4
  %10 = alloca ptr, align 8
  %11 = alloca ptr, align 8
  %12 = alloca ptr, align 8
  %13 = alloca ptr, align 8
  %14 = alloca ptr, align 8
  %15 = alloca ptr, align 8
  %16 = alloca i64, align 8
  %17 = alloca i32, align 4
  %18 = alloca i16, align 2
  %19 = alloca i32, align 4
  store ptr %0, ptr %10, align 8, !tbaa !9
  store ptr %1, ptr %11, align 8, !tbaa !9
  store ptr %2, ptr %12, align 8, !tbaa !95
  store ptr %3, ptr %13, align 8, !tbaa !70
  store ptr %4, ptr %14, align 8, !tbaa !70
  store ptr %5, ptr %15, align 8, !tbaa !500
  store i64 %6, ptr %16, align 8, !tbaa !16
  store i32 %7, ptr %17, align 4, !tbaa !502
  %20 = load ptr, ptr %10, align 8, !tbaa !9
  %21 = load ptr, ptr %12, align 8, !tbaa !95
  store ptr %20, ptr %21, align 8, !tbaa !9
  %22 = load ptr, ptr %13, align 8, !tbaa !70
  %23 = load ptr, ptr %15, align 8, !tbaa !500
  store ptr %22, ptr %23, align 8, !tbaa !70
  %24 = load i32, ptr %17, align 4, !tbaa !502
  %25 = and i32 %24, 4
  %26 = icmp ne i32 %25, 0
  br i1 %26, label %27, label %54

27:                                               ; preds = %8
  %28 = load ptr, ptr %11, align 8, !tbaa !9
  %29 = load ptr, ptr %12, align 8, !tbaa !95
  %30 = load ptr, ptr %29, align 8, !tbaa !9
  %31 = ptrtoint ptr %28 to i64
  %32 = ptrtoint ptr %30 to i64
  %33 = sub i64 %31, %32
  %34 = icmp sge i64 %33, 2
  br i1 %34, label %35, label %53

35:                                               ; preds = %27
  %36 = load ptr, ptr %12, align 8, !tbaa !95
  %37 = load ptr, ptr %36, align 8, !tbaa !9
  %38 = getelementptr inbounds i8, ptr %37, i64 0
  %39 = load i8, ptr %38, align 1, !tbaa !11
  %40 = zext i8 %39 to i32
  %41 = icmp eq i32 %40, 255
  br i1 %41, label %42, label %53

42:                                               ; preds = %35
  %43 = load ptr, ptr %12, align 8, !tbaa !95
  %44 = load ptr, ptr %43, align 8, !tbaa !9
  %45 = getelementptr inbounds i8, ptr %44, i64 1
  %46 = load i8, ptr %45, align 1, !tbaa !11
  %47 = zext i8 %46 to i32
  %48 = icmp eq i32 %47, 254
  br i1 %48, label %49, label %53

49:                                               ; preds = %42
  %50 = load ptr, ptr %12, align 8, !tbaa !95
  %51 = load ptr, ptr %50, align 8, !tbaa !9
  %52 = getelementptr inbounds i8, ptr %51, i64 2
  store ptr %52, ptr %50, align 8, !tbaa !9
  br label %53

53:                                               ; preds = %49, %42, %35, %27
  br label %54

54:                                               ; preds = %53, %8
  br label %55

55:                                               ; preds = %102, %54
  %56 = load ptr, ptr %12, align 8, !tbaa !95
  %57 = load ptr, ptr %56, align 8, !tbaa !9
  %58 = load ptr, ptr %11, align 8, !tbaa !9
  %59 = getelementptr inbounds i8, ptr %58, i64 -1
  %60 = icmp ult ptr %57, %59
  br i1 %60, label %61, label %66

61:                                               ; preds = %55
  %62 = load ptr, ptr %15, align 8, !tbaa !500
  %63 = load ptr, ptr %62, align 8, !tbaa !70
  %64 = load ptr, ptr %14, align 8, !tbaa !70
  %65 = icmp ult ptr %63, %64
  br label %66

66:                                               ; preds = %61, %55
  %67 = phi i1 [ false, %55 ], [ %65, %61 ]
  br i1 %67, label %68, label %106

68:                                               ; preds = %66
  call void @llvm.lifetime.start.p0(i64 2, ptr %18) #13
  %69 = load ptr, ptr %12, align 8, !tbaa !95
  %70 = load ptr, ptr %69, align 8, !tbaa !9
  %71 = getelementptr inbounds i8, ptr %70, i64 1
  %72 = load i8, ptr %71, align 1, !tbaa !11
  %73 = zext i8 %72 to i32
  %74 = shl i32 %73, 8
  %75 = load ptr, ptr %12, align 8, !tbaa !95
  %76 = load ptr, ptr %75, align 8, !tbaa !9
  %77 = getelementptr inbounds i8, ptr %76, i64 0
  %78 = load i8, ptr %77, align 1, !tbaa !11
  %79 = zext i8 %78 to i32
  %80 = or i32 %74, %79
  %81 = trunc i32 %80 to i16
  store i16 %81, ptr %18, align 2, !tbaa !73
  %82 = load i16, ptr %18, align 2, !tbaa !73
  %83 = zext i16 %82 to i32
  %84 = and i32 %83, 63488
  %85 = icmp eq i32 %84, 55296
  br i1 %85, label %91, label %86

86:                                               ; preds = %68
  %87 = load i16, ptr %18, align 2, !tbaa !73
  %88 = zext i16 %87 to i64
  %89 = load i64, ptr %16, align 8, !tbaa !16
  %90 = icmp ugt i64 %88, %89
  br i1 %90, label %91, label %92

91:                                               ; preds = %86, %68
  store i32 2, ptr %9, align 4
  store i32 1, ptr %19, align 4
  br label %99

92:                                               ; preds = %86
  %93 = load i16, ptr %18, align 2, !tbaa !73
  %94 = load ptr, ptr %15, align 8, !tbaa !500
  %95 = load ptr, ptr %94, align 8, !tbaa !70
  store i16 %93, ptr %95, align 2, !tbaa !73
  %96 = load ptr, ptr %12, align 8, !tbaa !95
  %97 = load ptr, ptr %96, align 8, !tbaa !9
  %98 = getelementptr inbounds i8, ptr %97, i64 2
  store ptr %98, ptr %96, align 8, !tbaa !9
  store i32 0, ptr %19, align 4
  br label %99

99:                                               ; preds = %92, %91
  call void @llvm.lifetime.end.p0(i64 2, ptr %18) #13
  %100 = load i32, ptr %19, align 4
  switch i32 %100, label %114 [
    i32 0, label %101
    i32 1, label %112
  ]

101:                                              ; preds = %99
  br label %102

102:                                              ; preds = %101
  %103 = load ptr, ptr %15, align 8, !tbaa !500
  %104 = load ptr, ptr %103, align 8, !tbaa !70
  %105 = getelementptr inbounds nuw i16, ptr %104, i32 1
  store ptr %105, ptr %103, align 8, !tbaa !70
  br label %55, !llvm.loop !566

106:                                              ; preds = %66
  %107 = load ptr, ptr %12, align 8, !tbaa !95
  %108 = load ptr, ptr %107, align 8, !tbaa !9
  %109 = load ptr, ptr %11, align 8, !tbaa !9
  %110 = icmp ult ptr %108, %109
  %111 = select i1 %110, i32 1, i32 0
  store i32 %111, ptr %9, align 4
  br label %112

112:                                              ; preds = %106, %99
  %113 = load i32, ptr %9, align 4
  ret i32 %113

114:                                              ; preds = %99
  unreachable
}

; Function Attrs: mustprogress uwtable
define dso_local noundef i32 @_ZNKSt3__115__codecvt_utf16IDsLb1EE5do_inER11__mbstate_tPKcS5_RS5_PDsS7_RS7_(ptr noundef nonnull align 8 dereferenceable(28) %0, ptr noundef nonnull align 4 dereferenceable(8) %1, ptr noundef %2, ptr noundef %3, ptr noundef nonnull align 8 dereferenceable(8) %4, ptr noundef %5, ptr noundef %6, ptr noundef nonnull align 8 dereferenceable(8) %7) unnamed_addr #2 align 2 {
  %9 = alloca ptr, align 8
  %10 = alloca ptr, align 8
  %11 = alloca ptr, align 8
  %12 = alloca ptr, align 8
  %13 = alloca ptr, align 8
  %14 = alloca ptr, align 8
  %15 = alloca ptr, align 8
  %16 = alloca ptr, align 8
  %17 = alloca ptr, align 8
  %18 = alloca ptr, align 8
  %19 = alloca ptr, align 8
  %20 = alloca ptr, align 8
  %21 = alloca ptr, align 8
  %22 = alloca ptr, align 8
  %23 = alloca i32, align 4
  store ptr %0, ptr %9, align 8, !tbaa !560
  store ptr %1, ptr %10, align 8, !tbaa !55
  store ptr %2, ptr %11, align 8, !tbaa !9
  store ptr %3, ptr %12, align 8, !tbaa !9
  store ptr %4, ptr %13, align 8, !tbaa !95
  store ptr %5, ptr %14, align 8, !tbaa !496
  store ptr %6, ptr %15, align 8, !tbaa !496
  store ptr %7, ptr %16, align 8, !tbaa !498
  %24 = load ptr, ptr %9, align 8
  call void @llvm.lifetime.start.p0(i64 8, ptr %17) #13
  %25 = load ptr, ptr %11, align 8, !tbaa !9
  store ptr %25, ptr %17, align 8, !tbaa !9
  call void @llvm.lifetime.start.p0(i64 8, ptr %18) #13
  %26 = load ptr, ptr %12, align 8, !tbaa !9
  store ptr %26, ptr %18, align 8, !tbaa !9
  call void @llvm.lifetime.start.p0(i64 8, ptr %19) #13
  %27 = load ptr, ptr %17, align 8, !tbaa !9
  store ptr %27, ptr %19, align 8, !tbaa !9
  call void @llvm.lifetime.start.p0(i64 8, ptr %20) #13
  %28 = load ptr, ptr %14, align 8, !tbaa !496
  store ptr %28, ptr %20, align 8, !tbaa !70
  call void @llvm.lifetime.start.p0(i64 8, ptr %21) #13
  %29 = load ptr, ptr %15, align 8, !tbaa !496
  store ptr %29, ptr %21, align 8, !tbaa !70
  call void @llvm.lifetime.start.p0(i64 8, ptr %22) #13
  %30 = load ptr, ptr %20, align 8, !tbaa !70
  store ptr %30, ptr %22, align 8, !tbaa !70
  call void @llvm.lifetime.start.p0(i64 4, ptr %23) #13
  %31 = load ptr, ptr %17, align 8, !tbaa !9
  %32 = load ptr, ptr %18, align 8, !tbaa !9
  %33 = load ptr, ptr %20, align 8, !tbaa !70
  %34 = load ptr, ptr %21, align 8, !tbaa !70
  %35 = getelementptr inbounds nuw %"class.std::__1::__codecvt_utf16.70", ptr %24, i32 0, i32 1
  %36 = load i64, ptr %35, align 8, !tbaa !562
  %37 = getelementptr inbounds nuw %"class.std::__1::__codecvt_utf16.70", ptr %24, i32 0, i32 2
  %38 = load i32, ptr %37, align 8, !tbaa !564
  %39 = call noundef i32 @_ZNSt3__1L15utf16le_to_ucs2EPKhS1_RS1_PtS3_RS3_mNS_12codecvt_modeE(ptr noundef %31, ptr noundef %32, ptr noundef nonnull align 8 dereferenceable(8) %19, ptr noundef %33, ptr noundef %34, ptr noundef nonnull align 8 dereferenceable(8) %22, i64 noundef %36, i32 noundef %38)
  store i32 %39, ptr %23, align 4, !tbaa !337
  %40 = load ptr, ptr %11, align 8, !tbaa !9
  %41 = load ptr, ptr %19, align 8, !tbaa !9
  %42 = load ptr, ptr %17, align 8, !tbaa !9
  %43 = ptrtoint ptr %41 to i64
  %44 = ptrtoint ptr %42 to i64
  %45 = sub i64 %43, %44
  %46 = getelementptr inbounds i8, ptr %40, i64 %45
  %47 = load ptr, ptr %13, align 8, !tbaa !95
  store ptr %46, ptr %47, align 8, !tbaa !9
  %48 = load ptr, ptr %14, align 8, !tbaa !496
  %49 = load ptr, ptr %22, align 8, !tbaa !70
  %50 = load ptr, ptr %20, align 8, !tbaa !70
  %51 = ptrtoint ptr %49 to i64
  %52 = ptrtoint ptr %50 to i64
  %53 = sub i64 %51, %52
  %54 = sdiv exact i64 %53, 2
  %55 = getelementptr inbounds i16, ptr %48, i64 %54
  %56 = load ptr, ptr %16, align 8, !tbaa !498
  store ptr %55, ptr %56, align 8, !tbaa !496
  %57 = load i32, ptr %23, align 4, !tbaa !337
  call void @llvm.lifetime.end.p0(i64 4, ptr %23) #13
  call void @llvm.lifetime.end.p0(i64 8, ptr %22) #13
  call void @llvm.lifetime.end.p0(i64 8, ptr %21) #13
  call void @llvm.lifetime.end.p0(i64 8, ptr %20) #13
  call void @llvm.lifetime.end.p0(i64 8, ptr %19) #13
  call void @llvm.lifetime.end.p0(i64 8, ptr %18) #13
  call void @llvm.lifetime.end.p0(i64 8, ptr %17) #13
  ret i32 %57
}