; Function Attrs: mustprogress nofree norecurse nosync nounwind memory(argmem: readwrite) uwtable
define dso_local noundef range(i32 0, 3) i32 @_ZNKSt3__115__codecvt_utf16IDsLb1EE5do_inER11__mbstate_tPKcS5_RS5_PDsS7_RS7_(ptr noundef nonnull readonly align 8 captures(none) dereferenceable(28) %0, ptr nonnull readnone align 4 captures(none) %1, ptr noundef %2, ptr noundef %3, ptr noundef nonnull writeonly align 8 captures(none) dereferenceable(8) %4, ptr noundef %5, ptr noundef readnone captures(address) %6, ptr noundef nonnull writeonly align 8 captures(none) dereferenceable(8) %7) unnamed_addr #24 align 2 {
  %9 = getelementptr inbounds nuw i8, ptr %0, i64 16
  %10 = load i64, ptr %9, align 8, !tbaa !463
  %11 = getelementptr inbounds nuw i8, ptr %0, i64 24
  %12 = load i32, ptr %11, align 8, !tbaa !465
  %13 = and i32 %12, 4
  %.not.i = icmp ne i32 %13, 0
  %14 = ptrtoint ptr %3 to i64
  %15 = ptrtoint ptr %2 to i64
  %16 = sub i64 %14, %15
  %17 = icmp sgt i64 %16, 1
  %or.cond35.i = and i1 %17, %.not.i
  br i1 %or.cond35.i, label %18, label %25

18:                                               ; preds = %8
  %19 = load i8, ptr %2, align 1, !tbaa !4
  %20 = icmp eq i8 %19, -1
  br i1 %20, label %21, label %25

21:                                               ; preds = %18
  %22 = getelementptr inbounds nuw i8, ptr %2, i64 1
  %23 = load i8, ptr %22, align 1, !tbaa !4
  %24 = icmp eq i8 %23, -2
  %spec.select.idx = select i1 %24, i64 2, i64 0
  %spec.select = getelementptr inbounds nuw i8, ptr %2, i64 %spec.select.idx
  br label %25

25:                                               ; preds = %21, %18, %8
  %.018 = phi ptr [ %2, %18 ], [ %2, %8 ], [ %spec.select, %21 ]
  %26 = getelementptr inbounds i8, ptr %3, i64 -1
  %27 = icmp ult ptr %.018, %26
  br i1 %27, label %.lr.ph.i, label %.critedge.i

.lr.ph.i:                                         ; preds = %25, %41
  %.220 = phi ptr [ %42, %41 ], [ %.018, %25 ]
  %.1 = phi ptr [ %43, %41 ], [ %5, %25 ]
  %28 = icmp ult ptr %.1, %6
  br i1 %28, label %29, label %.critedge.i

29:                                               ; preds = %.lr.ph.i
  %30 = getelementptr inbounds nuw i8, ptr %.220, i64 1
  %31 = load i8, ptr %30, align 1, !tbaa !4
  %32 = zext i8 %31 to i16
  %33 = shl nuw i16 %32, 8
  %34 = load i8, ptr %.220, align 1, !tbaa !4
  %35 = zext i8 %34 to i16
  %36 = or disjoint i16 %33, %35
  %37 = and i16 %32, 248
  %38 = icmp eq i16 %37, 216
  %39 = zext i16 %36 to i64
  %40 = icmp ult i64 %10, %39
  %or.cond.i = select i1 %38, i1 true, i1 %40
  br i1 %or.cond.i, label %_ZNSt3__1L15utf16le_to_ucs2EPKhS1_RS1_PtS3_RS3_mNS_12codecvt_modeE.exit, label %41

41:                                               ; preds = %29
  store i16 %36, ptr %.1, align 2, !tbaa !70
  %42 = getelementptr inbounds nuw i8, ptr %.220, i64 2
  %43 = getelementptr inbounds nuw i8, ptr %.1, i64 2
  %44 = icmp ult ptr %42, %26
  br i1 %44, label %.lr.ph.i, label %.critedge.i, !llvm.loop !467

.critedge.i:                                      ; preds = %41, %.lr.ph.i, %25
  %.119 = phi ptr [ %.018, %25 ], [ %.220, %.lr.ph.i ], [ %42, %41 ]
  %.0 = phi ptr [ %5, %25 ], [ %.1, %.lr.ph.i ], [ %43, %41 ]
  %45 = icmp ult ptr %.119, %3
  %46 = zext i1 %45 to i32
  br label %_ZNSt3__1L15utf16le_to_ucs2EPKhS1_RS1_PtS3_RS3_mNS_12codecvt_modeE.exit

_ZNSt3__1L15utf16le_to_ucs2EPKhS1_RS1_PtS3_RS3_mNS_12codecvt_modeE.exit: ; preds = %29, %.critedge.i
  %.3 = phi ptr [ %.119, %.critedge.i ], [ %.220, %29 ]
  %.2 = phi ptr [ %.0, %.critedge.i ], [ %.1, %29 ]
  %.2.i = phi i32 [ %46, %.critedge.i ], [ 2, %29 ]
  %47 = ptrtoint ptr %.3 to i64
  %48 = sub i64 %47, %15
  %49 = getelementptr inbounds i8, ptr %2, i64 %48
  store ptr %49, ptr %4, align 8, !tbaa !72
  %50 = ptrtoint ptr %.2 to i64
  %51 = ptrtoint ptr %5 to i64
  %52 = sub i64 %50, %51
  %53 = getelementptr inbounds i8, ptr %5, i64 %52
  store ptr %53, ptr %7, align 8, !tbaa !420
  ret i32 %.2.i
}